; Function Attrs: mustprogress nounwind uwtable
define dso_local void @_ZN4node4quic3CIDC2EPK10ngtcp2_cid(ptr nocapture noundef nonnull writeonly align 8 dereferenceable(48) %this, ptr noundef %cid) unnamed_addr #4 align 2 {
entry:
  store ptr getelementptr inbounds ({ [10 x ptr] }, ptr @_ZTVN4node4quic3CIDE, i64 0, i32 0, i64 2), ptr %this, align 8
  %ptr_ = getelementptr inbounds i8, ptr %this, i64 40
  store ptr %cid, ptr %ptr_, align 8
  %cmp.not = icmp eq ptr %cid, null
  br i1 %cmp.not, label %do.body4, label %do.end5

do.body4:                                         ; preds = %entry
  tail call void @_ZN4node6AssertERKNS_13AssertionInfoE(ptr noundef nonnull align 8 dereferenceable(24) @_ZZN4node4quic3CIDC1EPK10ngtcp2_cidE4args) #12
  tail call void @abort() #13
  unreachable

do.end5:                                          ; preds = %entry
  ret void
}